; Function Attrs: nounwind uwtable
define internal ptr @unicode_decode_get_end(ptr readnone captures(none) %0, ptr noundef %1) #0 {
  %3 = alloca i64, align 8
  call void @llvm.lifetime.start.p0(i64 8, ptr nonnull %3) #8
  %4 = call i32 @PyUnicodeDecodeError_GetEnd(ptr noundef %1, ptr noundef nonnull %3) #8
  %5 = icmp slt i32 %4, 0
  br i1 %5, label %16, label %6

6:                                                ; preds = %2
  %7 = load i64, ptr %3, align 8, !tbaa !26
  %8 = icmp eq i64 %7, -1
  %9 = call ptr @PyErr_Occurred() #8
  %.not4 = icmp eq ptr %9, null
  br i1 %8, label %10, label %12

10:                                               ; preds = %6
  br i1 %.not4, label %11, label %16

11:                                               ; preds = %10
  call void @__assert_fail(ptr noundef nonnull @.str.34, ptr noundef nonnull @.str.35, i32 noundef 460, ptr noundef nonnull @__PRETTY_FUNCTION__.unicode_decode_get_end) #9
  unreachable

12:                                               ; preds = %6
  br i1 %.not4, label %14, label %13

13:                                               ; preds = %12
  call void @__assert_fail(ptr noundef nonnull @.str.60, ptr noundef nonnull @.str.35, i32 noundef 460, ptr noundef nonnull @__PRETTY_FUNCTION__.unicode_decode_get_end) #9
  unreachable

14:                                               ; preds = %12
  %15 = call ptr @PyLong_FromSsize_t(i64 noundef %7) #8
  br label %16

16:                                               ; preds = %14, %10, %2
  %.0 = phi ptr [ null, %2 ], [ %15, %14 ], [ null, %10 ]
  call void @llvm.lifetime.end.p0(i64 8, ptr nonnull %3) #8
  ret ptr %.0
}